; Function Attrs: mustprogress nofree norecurse nosync nounwind willreturn memory(argmem: read) uwtable
define dso_local range(i64 -1, 2) i64 @btint48cmp(ptr noundef readonly captures(none) %0) local_unnamed_addr #0 {
  %2 = getelementptr inbounds nuw i8, ptr %0, i64 32
  %3 = load i64, ptr %2, align 8
  %4 = getelementptr inbounds nuw i8, ptr %0, i64 48
  %5 = load i64, ptr %4, align 8
  %sext = shl i64 %3, 32
  %6 = ashr exact i64 %sext, 32
  %.0 = tail call i64 @llvm.scmp.i64.i64(i64 %6, i64 %5)
  ret i64 %.0
}